; Function Attrs: mustprogress uwtable
define dso_local void @_Z14print_var_factRKSt6vectorIPK4FactSaIS2_EEPKc(ptr nocapture noundef nonnull readonly align 8 dereferenceable(24) %0, ptr noundef %1) local_unnamed_addr #8 {
  %3 = getelementptr inbounds i8, ptr %0, i64 8
  %4 = load ptr, ptr %3, align 8
  %5 = load ptr, ptr %0, align 8
  %.not = icmp eq ptr %4, %5
  br i1 %.not, label %._crit_edge, label %.lr.ph

.lr.ph:                                           ; preds = %2, %20
  %6 = phi ptr [ %23, %20 ], [ %5, %2 ]
  %.07 = phi i64 [ %21, %20 ], [ 0, %2 ]
  %7 = getelementptr inbounds ptr, ptr %6, i64 %.07
  %8 = load ptr, ptr %7, align 8
  %9 = load ptr, ptr %8, align 8
  %10 = getelementptr inbounds i8, ptr %9, i64 120
  %11 = load ptr, ptr %10, align 8
  %12 = tail call noundef ptr %11(ptr noundef nonnull align 8 dereferenceable(12) %8)
  %13 = getelementptr inbounds i8, ptr %12, i64 32
  %14 = tail call noundef i32 @_ZNKSt7__cxx1112basic_stringIcSt11char_traitsIcESaIcEE7compareEPKc(ptr noundef nonnull align 8 dereferenceable(32) %13, ptr noundef %1) #19
  %15 = icmp eq i32 %14, 0
  br i1 %15, label %16, label %20

16:                                               ; preds = %.lr.ph
  %17 = load ptr, ptr %8, align 8
  %18 = getelementptr inbounds i8, ptr %17, i64 112
  %19 = load ptr, ptr %18, align 8
  tail call void %19(ptr noundef nonnull align 8 dereferenceable(12) %8, ptr noundef nonnull align 8 dereferenceable(8) @_ZSt4cout, ptr noundef null)
  br label %20

20:                                               ; preds = %.lr.ph, %16
  %21 = add nuw i64 %.07, 1
  %22 = load ptr, ptr %3, align 8
  %23 = load ptr, ptr %0, align 8
  %24 = ptrtoint ptr %22 to i64
  %25 = ptrtoint ptr %23 to i64
  %26 = sub i64 %24, %25
  %27 = ashr exact i64 %26, 3
  %28 = icmp ult i64 %21, %27
  br i1 %28, label %.lr.ph, label %._crit_edge, !llvm.loop !21

._crit_edge:                                      ; preds = %20, %2
  ret void
}